target datalayout = "e-m:e-p270:32:32-p271:32:32-p272:64:64-i64:64-i128:128-f80:128-n8:16:32:64-S128"
target triple = "x86_64-pc-linux-gnu"

@_ZTVN32pxrInternal_v0_24__pxrReserved__32UsdImagingDataSourceStageGlobalsE = unnamed_addr constant { [7 x ptr] } { [7 x ptr] [ptr null, ptr @_ZTIN32pxrInternal_v0_24__pxrReserved__32UsdImagingDataSourceStageGlobalsE, ptr @_ZN32pxrInternal_v0_24__pxrReserved__32UsdImagingDataSourceStageGlobalsD1Ev, ptr @_ZN32pxrInternal_v0_24__pxrReserved__32UsdImagingDataSourceStageGlobalsD0Ev, ptr @__cxa_pure_virtual, ptr @__cxa_pure_virtual, ptr @__cxa_pure_virtual] }, align 8
@_ZTVN10__cxxabiv117__class_type_infoE = external global [0 x ptr]
@_ZTSN32pxrInternal_v0_24__pxrReserved__32UsdImagingDataSourceStageGlobalsE = constant [71 x i8] c"N32pxrInternal_v0_24__pxrReserved__32UsdImagingDataSourceStageGlobalsE\00", align 1
@_ZTIN32pxrInternal_v0_24__pxrReserved__32UsdImagingDataSourceStageGlobalsE = constant { ptr, ptr } { ptr getelementptr inbounds (ptr, ptr @_ZTVN10__cxxabiv117__class_type_infoE, i64 2), ptr @_ZTSN32pxrInternal_v0_24__pxrReserved__32UsdImagingDataSourceStageGlobalsE }, align 8

@_ZN32pxrInternal_v0_24__pxrReserved__32UsdImagingDataSourceStageGlobalsD1Ev = unnamed_addr alias void (ptr), ptr @_ZN32pxrInternal_v0_24__pxrReserved__32UsdImagingDataSourceStageGlobalsD2Ev

; Function Attrs: mustprogress nounwind uwtable
define void @_ZN32pxrInternal_v0_24__pxrReserved__32UsdImagingDataSourceStageGlobalsD2Ev(ptr noundef nonnull align 8 dereferenceable(8) %0) unnamed_addr #0 align 2 {
  %2 = alloca ptr, align 8
  store ptr %0, ptr %2, align 8
  ret void
}

; Function Attrs: mustprogress nounwind uwtable
define void @_ZN32pxrInternal_v0_24__pxrReserved__32UsdImagingDataSourceStageGlobalsD0Ev(ptr noundef nonnull align 8 dereferenceable(8) %0) unnamed_addr #0 align 2 {
  %2 = alloca ptr, align 8
  store ptr %0, ptr %2, align 8
  call void @llvm.trap() #2
  unreachable
}

; Function Attrs: cold noreturn nounwind memory(inaccessiblemem: write)
declare void @llvm.trap() #1

declare void @__cxa_pure_virtual() unnamed_addr


!llvm.module.flags = !{!0, !1, !2, !3}

!0 = !{i32 1, !"wchar_size", i32 4}
!1 = !{i32 8, !"PIC Level", i32 2}
!2 = !{i32 7, !"uwtable", i32 2}
!3 = !{i32 7, !"frame-pointer", i32 2}
